(dp0
S'Cu3Ir1'
p1
(dp2
S'qLattConst-PBE'
p3
cnumpy.core.multiarray
scalar
p4
(cnumpy
dtype
p5
(S'f8'
p6
I0
I1
tp7
Rp8
(I3
S'<'
p9
NNNI-1
I-1
I0
tp10
bS'8\x1a\x86\xb7\xe3\xb6\r@'
p11
tp12
Rp13
ssS'Cu1Zn3'
p14
(dp15
g3
g4
(g8
S'&\x1c\xa2\xa7\x85z\x0e@'
p16
tp17
Rp18
ssS'Ag2Pt2'
p19
(dp20
g3
g4
(g8
S'\x0bBE`\x8a:\x10@'
p21
tp22
Rp23
ssS'Cu3Ta1'
p24
(dp25
g3
g4
(g8
S'\xa7s\t2V\x9e\x0e@'
p26
tp27
Rp28
ssS'Ag3V1'
p29
(dp30
g3
g4
(g8
S'\xb2\x91\x85\xfc\x1b\x8e\x10@'
p31
tp32
Rp33
ssS'Pt3Ge1'
p34
(dp35
g3
g4
(g8
S'\x1e\xf9\xa3K\xde\xd9\x0f@'
p36
tp37
Rp38
ssS'Au3W1'
p39
(dp40
g3
g4
(g8
S']\xf1\x0b\x02\xeb\x9d\x10@'
p41
tp42
Rp43
ssS'Cu1Ti3'
p44
(dp45
g3
g4
(g8
S'"\xc0i\x14{\xd4\x0f@'
p46
tp47
Rp48
ssS'Ni2Ta2'
p49
(dp50
g3
g4
(g8
S'\xbd\x02\xa7\x88\x17\xdd\x0e@'
p51
tp52
Rp53
ssS'Ag2Cr2'
p54
(dp55
g3
g4
(g8
S'-\xa3\xbb\x17\xe8\xf4\x0e@'
p56
tp57
Rp58
ssS'Cu1Re3'
p59
(dp60
g3
g4
(g8
S'@\x7f\x11,\xe9\x9a\x0e@'
p61
tp62
Rp63
ssS'Ag1La3'
p64
(dp65
g3
g4
(g8
S'r\x9a@[o1\x14@'
p66
tp67
Rp68
ssS'Pd2Pd2'
p69
(dp70
g3
g4
(g8
S'\xea\xed\xf1#X\x13\x19@'
p71
tp72
Rp73
ssS'Ni3Ge1'
p74
(dp75
g3
g4
(g8
S'\xe2\xb9\x9aR\x1c\xa8\x0c@'
p76
tp77
Rp78
ssS'Ru3Pt1'
p79
(dp80
g3
g4
(g8
S'\x8d\xeds\xf3\xc3\xff\x0e@'
p81
tp82
Rp83
ssS'Rh3W1'
p84
(dp85
g3
g4
(g8
S'[\x0f\xb6\xa7\x7f\xf9\x0e@'
p86
tp87
Rp88
ssS'Pd2Nb2'
p89
(dp90
g3
g4
(g8
S'{\x07?\x80\x8d \x10@'
p91
tp92
Rp93
ssS'Ag3Ge1'
p94
(dp95
g3
g4
(g8
S'd\xf6\xd4a\xa5\xa2\x10@'
p96
tp97
Rp98
ssS'Ir3Ta1'
p99
(dp100
g3
g4
(g8
S'rG\x8a<\x90j\x0f@'
p101
tp102
Rp103
ssS'Cu3V1'
p104
(dp105
g3
g4
(g8
S'_u\x8d\x16\xc2\xf4\r@'
p106
tp107
Rp108
ssS'Pd3V1'
p109
(dp110
g3
g4
(g8
S'\xf1!\xdc\x82\xd99\x0f@'
p111
tp112
Rp113
ssS'Au3Zn1'
p114
(dp115
g3
g4
(g8
S"3#'X3m\x10@"
p116
tp117
Rp118
ssS'Pt2Ir2'
p119
(dp120
g3
g4
(g8
S'A\x9a\x94\x87mz\x0f@'
p121
tp122
Rp123
ssS'Pd3Pd1'
p124
(dp125
g3
g4
(g8
S'\xea\xed\xf1#X\x13\x19@'
p126
tp127
Rp128
ssS'P'
p129
(dp130
S'NuclearCharge'
p131
I15
sS'p_Orbital_R_max'
p132
F0.978
sS's_Orbital_R_max'
p133
F0.837
ssS'Co'
p134
(dp135
S'dBandCenter'
p136
F-1.17
sS'IonicRadius'
p137
F1.35
sS'd_Orbital_R_max'
p138
F0.358
sS'Pauling'
p139
F1.88
sg3
g4
(g8
S'>*>U\x8f\xbd\x0b@'
p140
tp141
Rp142
sS'LattConst'
p143
F3.5249
sg133
F1.319
sS'ElectronAffinity'
p144
F0.66
sS'IonizationPotential'
p145
F7.88
sS'CovalentRadius'
p146
F1.26
sS'Vad2'
p147
F1.34
sS'CrystalRadius'
p148
F0.54
sS'AtomicRadius'
p149
F1.39
sg131
I27
sS'OuterElectron'
p150
I9
sS'bulk-formation-energy'
p151
g4
(g8
S'\xe4\xce\xd6\xa3\x0f\x06\x91\xc0'
p152
tp153
Rp154
sS'WorkFunction'
p155
F5.76
sS'OrbitalRadius'
p156
F0.76
sS'KOrbitalRadius'
p157
F2.46
ssS'Pd3Bi1'
p158
(dp159
g3
g4
(g8
S'w\xb5\x97km\x8e\x10@'
p160
tp161
Rp162
ssS'Pd3Cr1'
p163
(dp164
g3
g4
(g8
S'\xff\x17g\\sZ\x0f@'
p165
tp166
Rp167
ssS'Ni3Zn1'
p168
(dp169
g3
g4
(g8
S'\xf6\xa4v=\x10\xa8\x0c@'
p170
tp171
Rp172
ssS'Ag2Rh2'
p173
(dp174
g3
g4
(g8
S'\xf1\x1e/\x06\xeb\x04\x10@'
p175
tp176
Rp177
ssS'Cu3Re1'
p178
(dp179
g3
g4
(g8
S'o8\xa4\xbc\xcb\xba\r@'
p180
tp181
Rp182
ssS'Rh3Pt1'
p183
(dp184
g3
g4
(g8
S'V\xec\xba\xa8\x86\r\x0f@'
p185
tp186
Rp187
ssS'Ge'
p188
(dp189
g138
F0.269
sg145
F7.9
sg132
F1.198
sg149
F1.25
sg137
F1.25
sg150
I14
sg146
F1.22
sg139
F2.01
sg148
F0.53
sg131
I32
sg133
F0.96
ssS'Ga'
p190
(dp191
g138
F0.285
sg145
F6.0
sg132
F1.4
sg149
F1.3
sg137
F1.3
sg150
I13
sg146
F1.26
sg139
F1.81
sg148
F0.76
sg131
I31
sg133
F1.058
ssS'Ag3Y1'
p192
(dp193
g3
g4
(g8
S'\x02H\xeb\xd4s\x9e\x11@'
p194
tp195
Rp196
ssS'Au3Zr1'
p197
(dp198
g3
g4
(g8
S'j\x14\x80\xbeE\x06\x11@'
p199
tp200
Rp201
ssS'Ag2Mo2'
p202
(dp203
g3
g4
(g8
S'\xf6\x91\xe8\x8az-\x10@'
p204
tp205
Rp206
ssS'Au3Ta1'
p207
(dp208
g3
g4
(g8
S'\x92F\xda\xf77\xb8\x10@'
p209
tp210
Rp211
ssS'Ag2Co2'
p212
(dp213
g3
g4
(g8
S'\xffa\x0fR\x90\x01\x0f@'
p214
tp215
Rp216
ssS'Ni3V1'
p217
(dp218
g3
g4
(g8
S',[\xab\x1fs\x90\x0c@'
p219
tp220
Rp221
ssS'Ag2La2'
p222
(dp223
g3
g4
(g8
S'\xb9\x92\xfc\xa7\xba\x17\x13@'
p224
tp225
Rp226
ssS'Ir3V1'
p227
(dp228
g3
g4
(g8
S'0\xfc\xbeX\x0f\xbd\x0e@'
p229
tp230
Rp231
ssS'Cu3Ni1'
p232
(dp233
g3
g4
(g8
S'\x90\x85d;9\xe3\x0c@'
p234
tp235
Rp236
ssS'Au3Re1'
p237
(dp238
g3
g4
(g8
S'z8\x16\xf8\x1ep\x10@'
p239
tp240
Rp241
ssS'Rh3Sc1'
p242
(dp243
g3
g4
(g8
S'\x1a\x08KjH|\x0f@'
p244
tp245
Rp246
ssS'Pd3Y1'
p247
(dp248
g3
g4
(g8
S'I\xecz\x97\xc6\x84\x10@'
p249
tp250
Rp251
ssS'Ag2Nb2'
p252
(dp253
g3
g4
(g8
S'\xc1U\xc7l\xe7\x8b\x10@'
p254
tp255
Rp256
ssS'Pd3In1'
p257
(dp258
g3
g4
(g8
S'\xc4\xc3\xe8\xd5\xc5,\x10@'
p259
tp260
Rp261
ssS'Cu3Ga1'
p262
(dp263
g3
g4
(g8
S'z{\xe3F\xfd\xb9\r@'
p264
tp265
Rp266
ssS'Ir3Ru1'
p267
(dp268
g3
g4
(g8
S'f\x01\x7f\x89\xbd\xf8\x0e@'
p269
tp270
Rp271
ssS'Cu3Zn1'
p272
(dp273
g3
g4
(g8
S'\x93\xb0\xdeB\xfb\x8d\r@'
p274
tp275
Rp276
ssS'Mg'
p277
(dp278
g146
F1.3
sg139
F1.31
sS'OxidationNumber'
p279
I2
sg148
F0.86
sg137
F1.5
sg133
F1.369
sg131
I12
ssS'K'
p280
(dp281
g146
F1.96
sg139
F0.82
sg279
I1
sg148
F1.52
sg137
F2.2
sg133
F2.3
sg131
I19
ssS'Mn'
p282
(dp283
g136
F0.07
sg3
g4
(g8
S'\xf7_o\x89\x90\r\x0c@'
p284
tp285
Rp286
sg138
F0.409
sg144
F0.0
sg145
F7.43
sg151
g4
(g8
S'\x1f_\n\xbb\xcf\xae\xa6\xc0'
p287
tp288
Rp289
sg149
F1.43
sg137
F1.4
sg150
I7
sg156
F0.86
sg146
F1.39
sg139
F1.55
sg143
F3.5041
sg155
F5.45
sg148
F0.81
sg131
I25
sg133
F1.419
ssS'Ni3Co1'
p290
(dp291
g3
g4
(g8
S'\xd7\xc0\x83\xd8\xba5\x0c@'
p292
tp293
Rp294
ssS'Ag1Mo3'
p295
(dp296
g3
g4
(g8
S'\x91\xb7\xd7\x0e\xae\x08\x10@'
p297
tp298
Rp299
ssS'Zn'
p300
(dp301
g138
F0.304
sg137
F1.35
sg131
I30
sg139
F1.65
sg133
F1.2
sg149
F1.35
sg145
F9.39
sg146
F1.31
sg150
I12
sg148
F0.74
ssS'Ir3Ag1'
p302
(dp303
g3
g4
(g8
S'\xcc\xa9x\x83m\x87\x0f@'
p304
tp305
Rp306
ssS'Ir3Ni1'
p307
(dp308
g3
g4
(g8
S'\x89\\\x10\x96J\x8d\x0e@'
p309
tp310
Rp311
ssS'Pt2Cr2'
p312
(dp313
g3
g4
(g8
S'l\xdaX-\xcf{\x0e@'
p314
tp315
Rp316
ssS'Pt2Sc2'
p317
(dp318
g3
g4
(g8
S'\x9aI\x1f\x86|\x85\x10@'
p319
tp320
Rp321
ssS'Zr'
p322
(dp323
g136
F1.95
sg137
F1.55
sg3
g4
(g8
S'3.\x99\x88\xdc\x1c\x12@'
p324
tp325
Rp326
sg139
F1.33
sg143
F4.5229
sg133
F1.785
sg279
I4
sg144
F0.43
sg145
F6.63
sg146
F1.48
sg138
F0.84
sg148
F0.86
sg149
F1.77
sg131
I40
sg150
I4
sg151
g4
(g8
S'D\x9e\x11\xda\x04\x14\x95\xc0'
p327
tp328
Rp329
sg155
F4.35
sg156
F1.41
ssS'Ag3Pt1'
p330
(dp331
g3
g4
(g8
S'\xa8\xd8$\xfb\x86e\x10@'
p332
tp333
Rp334
ssS'Pt3Ga1'
p335
(dp336
g3
g4
(g8
S'\xf4g<\x1a\xf6\xa5\x0f@'
p337
tp338
Rp339
ssS'Pd3Ta1'
p340
(dp341
g3
g4
(g8
S'\x9d\x85\x14\xbe\xc4\xc4\x0f@'
p342
tp343
Rp344
ssS'Pd2Y2'
p345
(dp346
g3
g4
(g8
S'\x03n\x02\x82\xa8\x9c\x11@'
p347
tp348
Rp349
ssS'Pt3Co1'
p350
(dp351
g3
g4
(g8
S'\x1dq\t\xb9X\x0f\x0f@'
p352
tp353
Rp354
ssS'Pd3Zr1'
p355
(dp356
g3
g4
(g8
S'U\r\xe7\x0eX\x1d\x10@'
p357
tp358
Rp359
ssS'Fe'
p360
(dp361
g136
F-0.92
sg137
F1.4
sg138
F0.382
sg139
F1.83
sg143
F3.4692
sg133
F1.366
sg144
F0.15
sg145
F7.9
sg146
F1.25
sg147
F1.59
sg148
F0.69
sg149
F1.41
sg131
I26
sg150
I8
sg155
F5.54
sg156
F0.8
sg157
F2.39
ssS'Ag3Ga1'
p362
(dp363
g3
g4
(g8
S'\x8a\\_]C\x84\x10@'
p364
tp365
Rp366
ssS'Pd2Ni2'
p367
(dp368
g3
g4
(g8
S'z\xe0\x08&\x06 \x0e@'
p369
tp370
Rp371
ssS'Ni3Pb1'
p372
(dp373
g3
g4
(g8
S's\xe5\x81;A\x93\x0e@'
p374
tp375
Rp376
ssS'Ir3Pd1'
p377
(dp378
g3
g4
(g8
S'\x80\x93\xcac\xb7*\x0f@'
p379
tp380
Rp381
ssS'Pt2Rh2'
p382
(dp383
g3
g4
(g8
S's:="\xb2W\x0f@'
p384
tp385
Rp386
ssS'Pt2Ag2'
p387
(dp388
g3
g4
(g8
S'\xd8\x10\xfct\x8b:\x10@'
p389
tp390
Rp391
ssS'F'
p392
(dp393
g131
I9
sg132
F0.381
sg133
F0.406
ssS'Sr'
p394
(dp395
g146
F1.92
sg139
F0.95
sg279
I2
sg148
F1.32
sg137
F2.0
sg133
F2.045
sg131
I38
ssS'Ir3Au1'
p396
(dp397
g3
g4
(g8
S'L\x19\xeb\xc9\x93\xa0\x0f@'
p398
tp399
Rp400
ssS'Si'
p401
(dp402
g146
F1.11
sg132
F1.151
sg148
F0.4
sg137
F1.1
sg133
F0.951
sg131
I14
ssS'Pd2Re2'
p403
(dp404
g3
g4
(g8
S',\xc2_\xbd\x8a \x0f@'
p405
tp406
Rp407
ssS'Sn'
p408
(dp409
g138
F0.468
sg145
F7.34
sg132
F1.395
sg149
F1.45
sg137
F1.45
sg150
I14
sg146
F1.41
sg139
F1.96
sg148
F0.69
sg131
I50
sg133
F1.139
ssS'Au3Pb1'
p410
(dp411
g3
g4
(g8
S'R\xabv\x12F\x8b\x11@'
p412
tp413
Rp414
ssS'V'
p415
(dp416
g136
F1.06
sg3
g4
(g8
S'\xf2\xd7W\xc3\xe9\x81\x0e@'
p417
tp418
Rp419
sg138
F0.479
sg144
F0.53
sg145
F6.75
sg151
g4
(g8
S'\xab\x1f\xdb\x95\xab\x8d\x9e\xc0'
p420
tp421
Rp422
sg149
F1.49
sg137
F1.35
sg150
I5
sg156
F0.98
sg146
F1.25
sg139
F1.63
sg143
F3.8134
sg155
F4.88
sg148
F0.68
sg131
I23
sg133
F1.544
ssS'Sc'
p423
(dp424
g136
F1.5
sg3
g4
(g8
S'S\x80\x90lT|\x12@'
p425
tp426
Rp427
sg144
F0.19
sg145
F6.56
sg151
g4
(g8
S'\x08\xc0T\xcd\x1c\r\x94\xc0'
p428
tp429
Rp430
sg149
F1.81
sg137
F1.6
sg150
I3
sg156
F1.24
sg146
F1.44
sg139
F1.36
sg143
F4.6128
sg279
I3
sg155
F3.84
sg148
F0.89
sg131
I21
sg133
F1.716
ssS'Ag1Y3'
p431
(dp432
g3
g4
(g8
S'\x03\xa4Sg*6\x13@'
p433
tp434
Rp435
ssS'Cu1Ga3'
p436
(dp437
g3
g4
(g8
S'}8m-/-\x10@'
p438
tp439
Rp440
ssS'Ni3Mo1'
p441
(dp442
g3
g4
(g8
S'J\xa2\xf0\xb8\xa7:\r@'
p443
tp444
Rp445
ssS'Ru3Cr1'
p446
(dp447
g3
g4
(g8
S'Zvey\x0fv\x0e@'
p448
tp449
Rp450
ssS'Pt2Pt2'
p451
(dp452
g3
g4
(g8
S'\x03}3\xd9\xb8Q\x19@'
p453
tp454
Rp455
ssS'Pt3Pt1'
p456
(dp457
g3
g4
(g8
S'\x03}3\xd9\xb8Q\x19@'
p458
tp459
Rp460
ssS'Pt2Os2'
p461
(dp462
g3
g4
(g8
S'\xda\xa6\x10W\xdc?\x0f@'
p463
tp464
Rp465
ssS'Pd3Re1'
p466
(dp467
g3
g4
(g8
S'<\xa5o\xec`k\x0f@'
p468
tp469
Rp470
ssS'La'
p471
(dp472
g136
F2.0
sg137
F1.95
sg3
g4
(g8
S'q\x1d\xfcn\xb6u\x15@'
p473
tp474
Rp475
sg139
F1.1
sg143
F5.3396
sg133
F2.201
sg279
I3
sg144
F0.5
sg145
F5.77
sg146
F1.69
sg138
F1.15
sg148
F1.36
sg149
F1.92
sg131
I57
sg150
I3
sg151
g4
(g8
S'\x04\xdc\xce\xff\x1e\xf9\x94\xc0'
p476
tp477
Rp478
sg155
F3.3
sg156
F1.58
ssS'Au3Nb1'
p479
(dp480
g3
g4
(g8
S'\x07`\xf4\xb5x\xcc\x10@'
p481
tp482
Rp483
ssS'Cu1Ni3'
p484
(dp485
g3
g4
(g8
S'\x04\x84\xaa\xbc\xf9g\x0c@'
p486
tp487
Rp488
ssS'Pt2Nb2'
p489
(dp490
g3
g4
(g8
S'\xd5\x0f7\xd4A)\x10@'
p491
tp492
Rp493
ssS'Li'
p494
(dp495
g146
F1.34
sg139
F0.98
sg279
I1
sg148
F0.9
sg137
F1.45
sg133
F1.641
sg131
I3
ssS'Rh3Mo1'
p496
(dp497
g3
g4
(g8
S'\x17\x1cw%\xf3\xfa\x0e@'
p498
tp499
Rp500
ssS'Pt3Pb1'
p501
(dp502
g3
g4
(g8
S'\xab\xf0\x9e:\xbf\x92\x10@'
p503
tp504
Rp505
ssS'Ni3Ta1'
p506
(dp507
g3
g4
(g8
S'\x92\x11\x18y\xd0z\r@'
p508
tp509
Rp510
ssS'Ru3V1'
p511
(dp512
g3
g4
(g8
S'\xa3\x01\x93E\x1b\x96\x0e@'
p513
tp514
Rp515
ssS'Ru3Ir1'
p516
(dp517
g3
g4
(g8
S'\xcc\xaf\xaa\xb6\xac\xd6\x0e@'
p518
tp519
Rp520
ssS'Pd2Ta2'
p521
(dp522
g3
g4
(g8
S'\x8cZ\xaf\x8eu\x1e\x10@'
p523
tp524
Rp525
ssS'Pd3Ge1'
p526
(dp527
g3
g4
(g8
S'\xf9\tk\xe5\x0b~\x0f@'
p528
tp529
Rp530
ssS'Ag3Co1'
p531
(dp532
g3
g4
(g8
S"i[\x85\x16\t'\x10@"
p533
tp534
Rp535
ssS'Ru3Pd1'
p536
(dp537
g3
g4
(g8
S'\x1f\x1f\x01\xae\xe9\xe9\x0e@'
p538
tp539
Rp540
ssS'Ag2Ru2'
p541
(dp542
g3
g4
(g8
S'\xbf\xc6\x0c\xf6\xce\xfe\x0f@'
p543
tp544
Rp545
ssS'Pd2Cu2'
p546
(dp547
g3
g4
(g8
S'/\x82=%:\x8b\x0e@'
p548
tp549
Rp550
ssS'Ag3Pb1'
p551
(dp552
g3
g4
(g8
S'\xc0-\xba\x1f}u\x11@'
p553
tp554
Rp555
ssS'Ag3La1'
p556
(dp557
g3
g4
(g8
S'\x8d\x8e\x125\xc2P\x12@'
p558
tp559
Rp560
ssS'Cu1Cu3'
p561
(dp562
g3
g4
(g8
S'\x92\x15?z\xb43\r@'
p563
tp564
Rp565
ssS'Rh3Co1'
p566
(dp567
g3
g4
(g8
S'!@\t\xdb\x04]\x0e@'
p568
tp569
Rp570
ssS'Ir3Os1'
p571
(dp572
g3
g4
(g8
S'\x13?\x01\xc5\x80\xf4\x0e@'
p573
tp574
Rp575
ssS'Ir3Cr1'
p576
(dp577
g3
g4
(g8
S'o>\xc5\x00c\x89\x0e@'
p578
tp579
Rp580
ssS'Ag2W2'
p581
(dp582
g3
g4
(g8
S'\xd6U\\\x08\xcb-\x10@'
p583
tp584
Rp585
ssS'Au3Os1'
p586
(dp587
g3
g4
(g8
S'0\xd7b0\xbbX\x10@'
p588
tp589
Rp590
ssS'Pt2Mo2'
p591
(dp592
g3
g4
(g8
S'\x1b_s\xe0!\xc4\x0f@'
p593
tp594
Rp595
ssS'Ag1W3'
p596
(dp597
g3
g4
(g8
S'\xde\xa7\xe1\xfc>\x14\x10@'
p598
tp599
Rp600
ssS'Ag1Sc3'
p601
(dp602
g3
g4
(g8
S'h~\x06BC\xd0\x11@'
p603
tp604
Rp605
ssS'Pt2La2'
p606
(dp607
g3
g4
(g8
S'\xe5\xad \xbc\xa5"\x12@'
p608
tp609
Rp610
ssS'Ru'
p611
(dp612
g136
F-1.41
sg137
F1.3
sg138
F0.639
sg139
F2.2
sg3
g4
(g8
S'<\xf9\xb9\xf7\xb2\xce\x0e@'
p613
tp614
Rp615
sg143
F3.8445
sg133
F1.647
sg144
F1.05
sg145
F7.36
sg146
F1.26
sg147
F3.87
sg148
F0.82
sg149
F1.48
sg131
I44
sg150
I8
sg151
g4
(g8
S'\xbf4\xb40\xa2Z\x85\xc0'
p616
tp617
Rp618
sg155
F5.73
sg156
F1.05
sg157
F3.22
ssS'Cu3Ti1'
p619
(dp620
g3
g4
(g8
S'OS\x1d\x87\xe4M\x0e@'
p621
tp622
Rp623
ssS'Pt3Mo1'
p624
(dp625
g3
g4
(g8
S'6\xe3\xa1\xfd3\xea\x0f@'
p626
tp627
Rp628
ssS'Ir3Ti1'
p629
(dp630
g3
g4
(g8
S'fi\x81\x0b\x8e\x0c\x0f@'
p631
tp632
Rp633
ssS'Re'
p634
(dp635
g136
F-0.51
sg137
F1.35
sg138
F0.739
sg139
F1.9
sg3
g4
(g8
S'V\xd1\xe2\x86h"\x0f@'
p636
tp637
Rp638
sg143
F3.8977
sg133
F1.6
sg144
F0.15
sg145
F7.88
sg146
F1.59
sg147
F6.04
sg148
F0.77
sg149
F1.52
sg131
I75
sg150
I7
sg151
g4
(g8
S'y\xdfAA]\x89\x89\xc0'
p639
tp640
Rp641
sg155
F5.88
sg156
F1.2
ssS'Ag2V2'
p642
(dp643
g3
g4
(g8
S'\xc4\x8c\xf6\xc3\xc4\xcd\x0f@'
p644
tp645
Rp646
ssS'Rb'
p647
(dp648
g146
F2.11
sg139
F0.82
sg279
I1
sg148
F1.66
sg137
F2.35
sg133
F2.49
sg131
I37
ssS'Rh'
p649
(dp650
g136
F-1.73
sg137
F1.35
sg138
F0.604
sg139
F2.28
sg3
g4
(g8
S'\xd0\xfe\xf0\xb3\xa5\xc5\x0e@'
p651
tp652
Rp653
sg143
F3.828
sg133
F1.604
sg144
F1.14
sg145
F7.46
sg146
F1.35
sg147
F3.32
sg148
F0.81
sg149
F1.49
sg131
I45
sg150
I9
sg151
g4
(g8
S']\t\xb3:,\xc8\xa8\xc0'
p654
tp655
Rp656
sg155
F5.91
sg156
F0.99
sg157
F3.32
ssS'Pt3Ru1'
p657
(dp658
g3
g4
(g8
S'\x9a\x08\xb8m\xcf\x96\x0f@'
p659
tp660
Rp661
ssS'Au3Pt1'
p662
(dp663
g3
g4
(g8
S'@\x04\xe06\xf2|\x10@'
p664
tp665
Rp666
ssS'Pt3La1'
p667
(dp668
g3
g4
(g8
S'\xb7\xef~\xc3q\xf1\x10@'
p669
tp670
Rp671
ssS'Ru3Bi1'
p672
(dp673
g3
g4
(g8
S'\xc0P\t`)!\x10@'
p674
tp675
Rp676
ssS'Ru3Ga1'
p677
(dp678
g3
g4
(g8
S'$\x8fc\x92\xc0\xd0\x0e@'
p679
tp680
Rp681
ssS'Cu1W3'
p682
(dp683
g3
g4
(g8
S'N\xc2\xe6\xe5\x93p\x0f@'
p684
tp685
Rp686
ssS'Ag3Ru1'
p687
(dp688
g3
g4
(g8
S'\xe7\x02\xcd\xbb\xb6D\x10@'
p689
tp690
Rp691
ssS'Cu1Ge3'
p692
(dp693
g3
g4
(g8
S'4P\xc8Z\xae\x80\x10@'
p694
tp695
Rp696
ssS'Ni3Os1'
p697
(dp698
g3
g4
(g8
S'\x8b\xab\x1co\x15\xd8\x0c@'
p699
tp700
Rp701
ssS'Pd3Rh1'
p702
(dp703
g3
g4
(g8
S'\xdax\xb7\x8f\xd5a\x0f@'
p704
tp705
Rp706
ssS'Cu1Mn3'
p707
(dp708
g3
g4
(g8
S'\xfb\x91\xc4<%W\x0c@'
p709
tp710
Rp711
ssS'Au3V1'
p712
(dp713
g3
g4
(g8
S'\x07c\xd8i\xd6\x87\x10@'
p714
tp715
Rp716
ssS'Ni3Pt1'
p717
(dp718
g3
g4
(g8
S'\xb9\xb3I\xc7YR\r@'
p719
tp720
Rp721
ssS'Pd2Os2'
p722
(dp723
g3
g4
(g8
S'\xc9\x94Ed\x8b\x02\x0f@'
p724
tp725
Rp726
ssS'Pd3Tl1'
p727
(dp728
g3
g4
(g8
S'\xdds\xbf\xc1\\S\x10@'
p729
tp730
Rp731
ssS'Cu3Sc1'
p732
(dp733
g3
g4
(g8
S'Sf\xe5\r\xcf<\x0f@'
p734
tp735
Rp736
ssS'Ni3Ni1'
p737
(dp738
g3
g4
(g8
S'\x97/i(-_\x16@'
p739
tp740
Rp741
ssS'Pd2Cr2'
p742
(dp743
g3
g4
(g8
S'\xa9\x1cD\x82\xd3\x83\x0f@'
p744
tp745
Rp746
ssS'Rh3V1'
p747
(dp748
g3
g4
(g8
S'\xe1o~\xbd\xa1\x81\x0e@'
p749
tp750
Rp751
ssS'Rh3Nb1'
p752
(dp753
g3
g4
(g8
S'-N,\xf9p4\x0f@'
p754
tp755
Rp756
ssS'Ru3Zr1'
p757
(dp758
g3
g4
(g8
S'\x17\xbb\xa0mi\xc3\x0f@'
p759
tp760
Rp761
ssS'Cu1In3'
p762
(dp763
g3
g4
(g8
S'\x02 Y\xc0\xc0\x07\x12@'
p764
tp765
Rp766
ssS'Ir3Bi1'
p767
(dp768
g3
g4
(g8
S'\xb1\xc1\x99c\xd6A\x10@'
p769
tp770
Rp771
ssS'Ru3Sc1'
p772
(dp773
g3
g4
(g8
S'\x81\xbf\x014\x9d\x87\x0f@'
p774
tp775
Rp776
ssS'Cu1La3'
p777
(dp778
g3
g4
(g8
S'\x0bN\xed\x9e\xd3\xd6\x13@'
p779
tp780
Rp781
ssS'Ag1Nb3'
p782
(dp783
g3
g4
(g8
S'\xa2\x0b{\x80\xc2\xa0\x10@'
p784
tp785
Rp786
ssS'Pt2Ru2'
p787
(dp788
g3
g4
(g8
S'\x85\x037y\nH\x0f@'
p789
tp790
Rp791
ssS'Ag1Ti3'
p792
(dp793
g3
g4
(g8
S'\xf5\x1f\x95#\xf1c\x10@'
p794
tp795
Rp796
ssS'Rh3Ir1'
p797
(dp798
g3
g4
(g8
S'f\x92\xa1{\x1a\xd6\x0e@'
p799
tp800
Rp801
ssS'Ni3Au1'
p802
(dp803
g3
g4
(g8
S'6\xb3iO\x94\xaf\r@'
p804
tp805
Rp806
ssS'Ru3Cu1'
p807
(dp808
g3
g4
(g8
S'm\x98\xf1\x0f\xa6\x8a\x0e@'
p809
tp810
Rp811
ssS'Ru3Ti1'
p812
(dp813
g3
g4
(g8
S'\xd0q\xdd\x92\xf0\xf2\x0e@'
p814
tp815
Rp816
ssS'Pd2Ir2'
p817
(dp818
g3
g4
(g8
S'N\xe1\xab\xd0\xa7?\x0f@'
p819
tp820
Rp821
ssS'Pd3Ga1'
p822
(dp823
g3
g4
(g8
S'\x0fC\xcc\xc6\x06n\x0f@'
p824
tp825
Rp826
ssS'Ni3Nb1'
p827
(dp828
g3
g4
(g8
S'\xdbL\x9bn\x14\x81\r@'
p829
tp830
Rp831
ssS'Cu3Bi1'
p832
(dp833
g3
g4
(g8
S'\x99v\xe2\xb0\x10\x1b\x10@'
p834
tp835
Rp836
ssS'Rh3La1'
p837
(dp838
g3
g4
(g8
S'e\x8c\xb9w-\x8e\x10@'
p839
tp840
Rp841
ssS'Ag3Ni1'
p842
(dp843
g3
g4
(g8
S't\x91\xfc\xbd\xc2\x0b\x10@'
p844
tp845
Rp846
ssS'Cu1Pb3'
p847
(dp848
g3
g4
(g8
S'|\x92e1\xcf\x18\x13@'
p849
tp850
Rp851
ssS'Ni3Ag1'
p852
(dp853
g3
g4
(g8
S'q\x11(ni\x96\r@'
p854
tp855
Rp856
ssS'Pd3Sn1'
p857
(dp858
g3
g4
(g8
S'u\x9eiD\xdc/\x10@'
p859
tp860
Rp861
ssS'Pt3Sc1'
p862
(dp863
g3
g4
(g8
S'\x08\xf2\xaf\xd1\x1d\x10\x10@'
p864
tp865
Rp866
ssS'Pd2Zr2'
p867
(dp868
g3
g4
(g8
S'\xba\x1f\x91$~\xbc\x10@'
p869
tp870
Rp871
ssS'Ag1Ni3'
p872
(dp873
g3
g4
(g8
S'\x81\x84rJi\x96\r@'
p874
tp875
Rp876
ssS'W'
p877
(dp878
g136
F0.77
sg137
F1.35
sg138
F0.776
sg139
F2.36
sg3
g4
(g8
S't\xa4WK\xd4,\x10@'
p879
tp880
Rp881
sg143
F4.0364
sg133
F1.65
sg144
F0.86
sg145
F7.98
sg146
F1.46
sg147
F7.27
sg148
F0.74
sg149
F1.56
sg131
I74
sg150
I6
sg151
g4
(g8
S'h\x81\xf4\x8e`\xec\xa0\xc0'
p882
tp883
Rp884
sg155
F5.09
sg156
F1.27
ssS'Ir3W1'
p885
(dp886
g3
g4
(g8
S'\x93R ?S9\x0f@'
p887
tp888
Rp889
ssS'Pd3Mo1'
p890
(dp891
g3
g4
(g8
S'\xddH\xad\xbe\xe8\xac\x0f@'
p892
tp893
Rp894
ssS'Ag1Ru3'
p895
(dp896
g3
g4
(g8
S'E\xd2z\xaa\x03X\x0f@'
p897
tp898
Rp899
ssS'Ni3W1'
p900
(dp901
g3
g4
(g8
S'q\x1ego\xe32\r@'
p902
tp903
Rp904
ssS'Au3Ti1'
p905
(dp906
g3
g4
(g8
S']_\x80\x92\xac\xa3\x10@'
p907
tp908
Rp909
ssS'Pt2V2'
p910
(dp911
g3
g4
(g8
S'/tK\xba&\xde\x0e@'
p912
tp913
Rp914
ssS'Cu3Sn1'
p915
(dp916
g3
g4
(g8
S'\xb1\xf4"T\xce,\x0f@'
p917
tp918
Rp919
ssS'Rh3Ge1'
p920
(dp921
g3
g4
(g8
S'\x05\xc0\x89\xb1\xd2\xdb\x0e@'
p922
tp923
Rp924
ssS'Ag3Zn1'
p925
(dp926
g3
g4
(g8
S'\r}u\x85 `\x10@'
p927
tp928
Rp929
ssS'Pd2Co2'
p930
(dp931
g3
g4
(g8
S'\xf0\x9a\xb2r:0\x0e@'
p932
tp933
Rp934
ssS'Rh3Zn1'
p935
(dp936
g3
g4
(g8
S'\xec7\\\x06@\xbb\x0e@'
p937
tp938
Rp939
ssS'Pt3Y1'
p940
(dp941
g3
g4
(g8
S'\xf0\x98\xbf\x87"\x86\x10@'
p942
tp943
Rp944
ssS'Ag1Cr3'
p945
(dp946
g3
g4
(g8
S'\x00\xb6d\xf2\xce\xdd\r@'
p947
tp948
Rp949
ssS'Pd3Au1'
p950
(dp951
g3
g4
(g8
S'\x94\xe2^\xe0\xec\x04\x10@'
p952
tp953
Rp954
ssS'Ir3Re1'
p955
(dp956
g3
g4
(g8
S'\xf6\x16}\\\xc3\x00\x0f@'
p957
tp958
Rp959
ssS'Pt3Ni1'
p960
(dp961
g3
g4
(g8
S"\xdf\x9al\xcfQ'\x0f@"
p962
tp963
Rp964
ssS'Ru3Ge1'
p965
(dp966
g3
g4
(g8
S']\xbc\xd6e\x9b\xd4\x0e@'
p967
tp968
Rp969
ssS'Ag2Mn2'
p970
(dp971
g3
g4
(g8
S'\r\x90\xb4~\x08\xcc\x0e@'
p972
tp973
Rp974
ssS'Ni3Sn1'
p975
(dp976
g3
g4
(g8
S'\xb1\xc0u\x93\xdf\xf2\r@'
p977
tp978
Rp979
ssS'Ag2Ti2'
p980
(dp981
g3
g4
(g8
S'\xdb\xca\xe9J\x03v\x10@'
p982
tp983
Rp984
ssS'Cu1Tl3'
p985
(dp986
g3
g4
(g8
S'\xc4\x87\x8c\x81"\xe2\x12@'
p987
tp988
Rp989
ssS'B'
p990
(dp991
g131
I5
sg132
F0.839
sg133
F0.807
ssS'Cu3La1'
p992
(dp993
g3
g4
(g8
S'$I_\x15\r+\x11@'
p994
tp995
Rp996
ssS'Pt3W1'
p997
(dp998
g3
g4
(g8
S'\xbc\xf9\x1e\x0c\x96\xe5\x0f@'
p999
tp1000
Rp1001
ssS'Ag2Cu2'
p1002
(dp1003
g3
g4
(g8
S'\xe4\x95\xf7\xbe\xe7m\x0f@'
p1004
tp1005
Rp1006
ssS'Cu1Ir3'
p1007
(dp1008
g3
g4
(g8
S'\x0ba\xda\xf0\x9c\xc0\x0e@'
p1009
tp1010
Rp1011
ssS'Rh3Ru1'
p1012
(dp1013
g3
g4
(g8
S'\xdeNVU\xc4\xc1\x0e@'
p1014
tp1015
Rp1016
ssS'Pd3Ag1'
p1017
(dp1018
g3
g4
(g8
S'\xb0JJ\xe2s\xf5\x0f@'
p1019
tp1020
Rp1021
ssS'Cu1Bi3'
p1022
(dp1023
g3
g4
(g8
S'3Z\xfaA[4\x13@'
p1024
tp1025
Rp1026
ssS'Rh3Cu1'
p1027
(dp1028
g3
g4
(g8
S'\xe4D\xa3\xca\xf0\x7f\x0e@'
p1029
tp1030
Rp1031
ssS'Ru3Zn1'
p1032
(dp1033
g3
g4
(g8
S'1\xd1\xa4\xf1\x8a\xb9\x0e@'
p1034
tp1035
Rp1036
ssS'Ni3La1'
p1037
(dp1038
g3
g4
(g8
S'Y\xde\xc5V\x14\xb5\x0f@'
p1039
tp1040
Rp1041
ssS'Pt3Zn1'
p1042
(dp1043
g3
g4
(g8
S'\xc3V3r!\x8b\x0f@'
p1044
tp1045
Rp1046
ssS'Pd2Au2'
p1047
(dp1048
g3
g4
(g8
S'\xc4\x82tB\xac<\x10@'
p1049
tp1050
Rp1051
ssS'Ir3Y1'
p1052
(dp1053
g3
g4
(g8
S'\xfd\xf9\xfbx\xe6<\x10@'
p1054
tp1055
Rp1056
ssS'Pd2Mo2'
p1057
(dp1058
g3
g4
(g8
S'\xeb\\3\xcf\xa5\x9d\x0f@'
p1059
tp1060
Rp1061
ssS'Ni3Re1'
p1062
(dp1063
g3
g4
(g8
S'\xd2\x99\x17k:\xea\x0c@'
p1064
tp1065
Rp1066
ssS'Cu3Pt1'
p1067
(dp1068
g3
g4
(g8
S'\xa2\xcdLWm\xf6\r@'
p1069
tp1070
Rp1071
ssS'Ag1Ir3'
p1072
(dp1073
g3
g4
(g8
S'\xc4+\xd1\xfck\x87\x0f@'
p1074
tp1075
Rp1076
ssS'Ir3Zn1'
p1077
(dp1078
g3
g4
(g8
S'\x89\xb4d\xb7z\xff\x0e@'
p1079
tp1080
Rp1081
ssS'Ag3Ir1'
p1082
(dp1083
g3
g4
(g8
S'\x07d\xcfZ\x06J\x10@'
p1084
tp1085
Rp1086
ssS'Ni3Mn1'
p1087
(dp1088
g3
g4
(g8
S'\xdb\xc0g\x82\x13\x9e\x0c@'
p1089
tp1090
Rp1091
ssS'Rh3Ag1'
p1092
(dp1093
g3
g4
(g8
S"\xb1\x90J\xfe'a\x0f@"
p1094
tp1095
Rp1096
ssS'Pd3Mn1'
p1097
(dp1098
g3
g4
(g8
S'\x8e\xb6`\x80\xa7w\x0f@'
p1099
tp1100
Rp1101
ssS'Rh3Bi1'
p1102
(dp1103
g3
g4
(g8
S'\x17\xce\x8c\x12\x17)\x10@'
p1104
tp1105
Rp1106
ssS'Pt3Nb1'
p1107
(dp1108
g3
g4
(g8
S'4\xb0\x0c\xa5\x12\t\x10@'
p1109
tp1110
Rp1111
ssS'Ru3Co1'
p1112
(dp1113
g3
g4
(g8
S'\x12qAL[,\x0e@'
p1114
tp1115
Rp1116
ssS'Ag3Os1'
p1117
(dp1118
g3
g4
(g8
S'B\xc6\x11\xe2\xafA\x10@'
p1119
tp1120
Rp1121
ssS'Cu1Ru3'
p1122
(dp1123
g3
g4
(g8
S'A\xa3\xe3\xc1\x91\x8a\x0e@'
p1124
tp1125
Rp1126
ssS'Au3Rh1'
p1127
(dp1128
g3
g4
(g8
S'\xb5\x10tE6`\x10@'
p1129
tp1130
Rp1131
ssS'Ru3W1'
p1132
(dp1133
g3
g4
(g8
S'\x1c\x17\x90\xe7\xc6\x01\x0f@'
p1134
tp1135
Rp1136
ssS'Au3Ir1'
p1137
(dp1138
g3
g4
(g8
S'\x1aZ5\xdb\xbba\x10@'
p1139
tp1140
Rp1141
ssS'Ag3Nb1'
p1142
(dp1143
g3
g4
(g8
S'\xc4b\xe3:\xc8\xd4\x10@'
p1144
tp1145
Rp1146
ssS'Rh3Zr1'
p1147
(dp1148
g3
g4
(g8
S'\xae\x1e4\xeb\xec\xb5\x0f@'
p1149
tp1150
Rp1151
ssS'Ir3Mo1'
p1152
(dp1153
g3
g4
(g8
S'+`{\xb8/3\x0f@'
p1154
tp1155
Rp1156
ssS'Rh3Ga1'
p1157
(dp1158
g3
g4
(g8
S'\x7fs\xd3\x15x\xd5\x0e@'
p1159
tp1160
Rp1161
ssS'Ag2Ni2'
p1162
(dp1163
g3
g4
(g8
S'`Z\x16\x8a\x91\xe2\x0e@'
p1164
tp1165
Rp1166
ssS'Ag3Cr1'
p1167
(dp1168
g3
g4
(g8
S'<\xb2\xaf\x11:\x8b\x10@'
p1169
tp1170
Rp1171
ssS'Pt2Mn2'
p1172
(dp1173
g3
g4
(g8
S'\xac?\xcf\x11\x06\xfc\x0e@'
p1174
tp1175
Rp1176
ssS'Cu3Ru1'
p1177
(dp1178
g3
g4
(g8
S'\xf7\xa9%\x11\xa8\xaa\r@'
p1179
tp1180
Rp1181
ssS'Rh3Pd1'
p1182
(dp1183
g3
g4
(g8
S'\xb7\x9f\xe8\x98r\xfb\x0e@'
p1184
tp1185
Rp1186
ssS'Pt3Cu1'
p1187
(dp1188
g3
g4
(g8
S'*c\x8c\x8fwQ\x0f@'
p1189
tp1190
Rp1191
ssS'Ir3Cu1'
p1192
(dp1193
g3
g4
(g8
S'vi\x139\xa5\xc0\x0e@'
p1194
tp1195
Rp1196
ssS'Pt2Ti2'
p1197
(dp1198
g3
g4
(g8
S'hp\xd7\x1eu\xb6\x0f@'
p1199
tp1200
Rp1201
ssS'Ag1Pd3'
p1202
(dp1203
g3
g4
(g8
S'\x08\xe6\x90\xf5k\xf5\x0f@'
p1204
tp1205
Rp1206
ssS'Cu3Pb1'
p1207
(dp1208
g3
g4
(g8
S'\xab\xf0\xc2\xcd\xba\xf8\x0f@'
p1209
tp1210
Rp1211
ssS'Pd2Rh2'
p1212
(dp1213
g3
g4
(g8
S'\xa3B\x9a4\xcc-\x0f@'
p1214
tp1215
Rp1216
ssS'Ag1V3'
p1217
(dp1218
g3
g4
(g8
S'iL\xce\xb0W\x05\x0f@'
p1219
tp1220
Rp1221
ssS'Ag3Cu1'
p1222
(dp1223
g3
g4
(g8
S';\xa7\x02\x99\x1f1\x10@'
p1224
tp1225
Rp1226
ssS'Au3Tl1'
p1227
(dp1228
g3
g4
(g8
S'\xb2\x90+.j>\x11@'
p1229
tp1230
Rp1231
ssS'Ru3Pb1'
p1232
(dp1233
g3
g4
(g8
S"p'\xbb=\xa6\x10\x10@"
p1234
tp1235
Rp1236
ssS'Pt3Ti1'
p1237
(dp1238
g3
g4
(g8
S'\xe3\xc0\xc3)\t\xab\x0f@'
p1239
tp1240
Rp1241
ssS'H'
p1242
(dp1243
g131
I1
sg133
F0.529
ssS'Cu3Y1'
p1244
(dp1245
g3
g4
(g8
S'\t\xecH\xf0\xb9d\x10@'
p1246
tp1247
Rp1248
ssS'Cu1Co3'
p1249
(dp1250
g3
g4
(g8
S'\xa5\x05\xd4{\xfe\x81\x0c@'
p1251
tp1252
Rp1253
ssS'Au3Bi1'
p1254
(dp1255
g3
g4
(g8
S'\x0b]\x89\xeak\x85\x11@'
p1256
tp1257
Rp1258
ssS'Ag2Pd2'
p1259
(dp1260
g3
g4
(g8
S'\x1dx\x98q\x9e/\x10@'
p1261
tp1262
Rp1263
ssS'Ir3Ge1'
p1264
(dp1265
g3
g4
(g8
S'\xf9\x0f\xe0\xee}$\x0f@'
p1266
tp1267
Rp1268
ssS'Ir3La1'
p1269
(dp1270
g3
g4
(g8
S'}\x90\xca\xd3\xf6\x98\x10@'
p1271
tp1272
Rp1273
ssS'Ag3Ti1'
p1274
(dp1275
g3
g4
(g8
S'\xcf\x85\x8d/%\xae\x10@'
p1276
tp1277
Rp1278
ssS'Ru3Mo1'
p1279
(dp1280
g3
g4
(g8
S'\x02\x1bk\xca\xfc\xff\x0e@'
p1281
tp1282
Rp1283
ssS'Rh3Au1'
p1284
(dp1285
g3
g4
(g8
S'\xbf\x1aQz\x85v\x0f@'
p1286
tp1287
Rp1288
ssS'Pt3Cr1'
p1289
(dp1290
g3
g4
(g8
S'\x81\xe6\x89\xb3\x08v\x0f@'
p1291
tp1292
Rp1293
ssS'Ni3Tl1'
p1294
(dp1295
g3
g4
(g8
S'\n\x9fN\xd7qL\x0e@'
p1296
tp1297
Rp1298
ssS'Pd2Pt2'
p1299
(dp1300
g3
g4
(g8
S'Y\x8e\xaa\xb6%\xb4\x0f@'
p1301
tp1302
Rp1303
ssS'Cu1V3'
p1304
(dp1305
g3
g4
(g8
S'Q\x98\x98\x15\\\xfd\r@'
p1306
tp1307
Rp1308
ssS'Pd3Pt1'
p1309
(dp1310
g3
g4
(g8
S'\xa9\xc1\x83\x1b0\xa2\x0f@'
p1311
tp1312
Rp1313
ssS'Ag3In1'
p1314
(dp1315
g3
g4
(g8
S'\x95\xd7\x10@\x87\xf5\x10@'
p1316
tp1317
Rp1318
ssS'Pt'
p1319
(dp1320
g136
F-2.25
sg137
F1.35
sg138
F0.659
sg139
F2.28
sg3
g4
(g8
S'\x1b8\xbcan\xe8\x0f@'
p1321
tp1322
Rp1323
sg143
F4.0056
sg133
F1.591
sg144
F2.13
sg145
F9.0
sg146
F1.28
sg147
F3.9
sg148
F0.74
sg149
F1.53
sg131
I78
sg150
I10
sg151
g4
(g8
S'v\x9b)[;\xe6\x8e\xc0'
p1324
tp1325
Rp1326
sg155
F6.74
sg156
F1.04
sg157
F3.79
ssS'Au3Mn1'
p1327
(dp1328
g3
g4
(g8
S'\x00|@C\t\x89\x10@'
p1329
tp1330
Rp1331
ssS'Ag1Ta3'
p1332
(dp1333
g3
g4
(g8
S'L\xd5z >\xa1\x10@'
p1334
tp1335
Rp1336
ssS'Cu1Mo3'
p1337
(dp1338
g3
g4
(g8
S'\xf7\x8d\x93\xf3\xdfL\x0f@'
p1339
tp1340
Rp1341
ssS'Pb'
p1342
(dp1343
g138
F0.562
sg145
F7.42
sg132
F1.482
sg149
F1.8
sg137
F1.8
sg150
I14
sg146
F1.47
sg139
F2.33
sg148
F1.49
sg131
I82
sg133
F1.212
ssS'Pd'
p1344
(dp1345
g136
F-1.83
sg137
F1.4
sg138
F0.58
sg139
F2.2
sg3
g4
(g8
S'/\xba\xbcL\xc8\x95\x0f@'
p1346
tp1347
Rp1348
sg143
F3.9884
sg144
F0.56
sg145
F8.34
sg146
F1.31
sg147
F2.78
sg148
F0.78
sg149
F1.52
sg131
F45.059
sg150
I10
sg151
g4
(g8
S'ZS\x8fr\x98\xbe\x90\xc0'
p1349
tp1350
Rp1351
sg155
F5.9
sg156
F0.94
sg157
F3.38
ssS'Au3Cu1'
p1352
(dp1353
g3
g4
(g8
S'W\xc3\x170tB\x10@'
p1354
tp1355
Rp1356
ssS'Ru3Ta1'
p1357
(dp1358
g3
g4
(g8
S'\x9aiZ\xc8}E\x0f@'
p1359
tp1360
Rp1361
ssS'Ni3Rh1'
p1362
(dp1363
g3
g4
(g8
S'\xb5O3\x11\xbe\x04\r@'
p1364
tp1365
Rp1366
ssS'Ag3Bi1'
p1367
(dp1368
g3
g4
(g8
S'/iAJ\x85\x84\x11@'
p1369
tp1370
Rp1371
ssS'Rh3Y1'
p1372
(dp1373
g3
g4
(g8
S'\xde\xf5\x97\x8e\xa65\x10@'
p1374
tp1375
Rp1376
ssS'Pt2Cu2'
p1377
(dp1378
g3
g4
(g8
S'w:\x81t<\xbc\x0e@'
p1379
tp1380
Rp1381
ssS'Pt3Bi1'
p1382
(dp1383
g3
g4
(g8
S'x\x13\xe0\x075\xba\x10@'
p1384
tp1385
Rp1386
ssS'Au3In1'
p1387
(dp1388
g3
g4
(g8
S"'I\xbc\xe0\x18\xf8\x10@"
p1389
tp1390
Rp1391
ssS'Rh3Cr1'
p1392
(dp1393
g3
g4
(g8
S'\x15&\xd9\xc5\xbcN\x0e@'
p1394
tp1395
Rp1396
ssS'Ag3Sn1'
p1397
(dp1398
g3
g4
(g8
S'J1C\x8eG\x1a\x11@'
p1399
tp1400
Rp1401
ssS'Mo'
p1402
(dp1403
g136
F0.35
sg3
g4
(g8
S'\xb3\xc1\xe8D\xd1\x0e\x10@'
p1404
tp1405
Rp1406
sg138
F0.729
sg144
F0.75
sg145
F7.09
sg151
g4
(g8
S'\x06\xb4~8\xccc\x9f\xc0'
p1407
tp1408
Rp1409
sg149
F1.55
sg137
F1.45
sg150
I6
sg156
F1.2
sg146
F1.45
sg139
F2.16
sg143
F4.0406
sg155
F5.09
sg148
F0.79
sg131
I42
sg133
F1.753
ssS'Au3Sc1'
p1410
(dp1411
g3
g4
(g8
S'\x94=\x1b\x0f\xed\xe5\x10@'
p1412
tp1413
Rp1414
ssS'Pt2Pd2'
p1415
(dp1416
g3
g4
(g8
S'*\xa8\xe2}&\xb4\x0f@'
p1417
tp1418
Rp1419
ssS'C'
p1420
(dp1421
g131
I6
sg132
F0.664
sg133
F0.646
ssS'Pd3Pb1'
p1422
(dp1423
g3
g4
(g8
S'\xe6\xec0j"y\x10@'
p1424
tp1425
Rp1426
ssS'S'
p1427
(dp1428
g131
I16
sg132
F0.855
sg133
F0.682
ssS'Pt3Os1'
p1429
(dp1430
g3
g4
(g8
S'\xeeu N8\x93\x0f@'
p1431
tp1432
Rp1433
ssS'Ir3Pb1'
p1434
(dp1435
g3
g4
(g8
S'\x89\xddB\x8e\n>\x10@'
p1436
tp1437
Rp1438
ssS'Rh3Ti1'
p1439
(dp1440
g3
g4
(g8
S'\x9b\xc9\xb7-\xe3\xdd\x0e@'
p1441
tp1442
Rp1443
ssS'Au3Ge1'
p1444
(dp1445
g3
g4
(g8
S'\xd0%\x04\xb4\xc3\xcc\x10@'
p1446
tp1447
Rp1448
ssS'Cu1Ta3'
p1449
(dp1450
g3
g4
(g8
S'\x08D\x89E\x97D\x10@'
p1451
tp1452
Rp1453
ssS'Ag3Mn1'
p1454
(dp1455
g3
g4
(g8
S'M\xaf\xe8\x91\x06\x83\x10@'
p1456
tp1457
Rp1458
ssS'Au3Ru1'
p1459
(dp1460
g3
g4
(g8
S'\xee\x16\xc5\xb7\xe5\\\x10@'
p1461
tp1462
Rp1463
ssS'Cu3Mn1'
p1464
(dp1465
g3
g4
(g8
S'\x8d\xcf\x88\x85O\xcd\r@'
p1466
tp1467
Rp1468
ssS'Ag1Zr3'
p1469
(dp1470
g3
g4
(g8
S'\x8ct>\xc5\xb9\xa2\x11@'
p1471
tp1472
Rp1473
ssS'Au3Ni1'
p1474
(dp1475
g3
g4
(g8
S'\xa1\x01\xcc\x9e\x14#\x10@'
p1476
tp1477
Rp1478
ssS'Ag2Os2'
p1479
(dp1480
g3
g4
(g8
S'\xdfg\x02\xa6Z\xba\x0f@'
p1481
tp1482
Rp1483
ssS'Ag2Ta2'
p1484
(dp1485
g3
g4
(g8
S'u9\xadm\xe7\x85\x10@'
p1486
tp1487
Rp1488
ssS'Pt3Pd1'
p1489
(dp1490
g3
g4
(g8
S'\xe7\xfa\xdeR\xd5\xcb\x0f@'
p1491
tp1492
Rp1493
ssS'Pd2Ag2'
p1494
(dp1495
g3
g4
(g8
S'\x88\xca\xc9`\x9e/\x10@'
p1496
tp1497
Rp1498
ssS'Pd3Ru1'
p1499
(dp1500
g3
g4
(g8
S'\x87h\xf87\x8fO\x0f@'
p1501
tp1502
Rp1503
ssS'Pt2W2'
p1504
(dp1505
g3
g4
(g8
S'\xf5AXl\x18\xd2\x0f@'
p1506
tp1507
Rp1508
ssS'Ag3Pd1'
p1509
(dp1510
g3
g4
(g8
S'\x7fu\x93\x07\xafc\x10@'
p1511
tp1512
Rp1513
ssS'Pd2V2'
p1514
(dp1515
g3
g4
(g8
S'\xce\xea\x1f\xc3)\xc3\x0e@'
p1516
tp1517
Rp1518
ssS'Ru3Os1'
p1519
(dp1520
g3
g4
(g8
S'\x87\xba5\x07<\xc0\x0e@'
p1521
tp1522
Rp1523
ssS'Cu1Rh3'
p1524
(dp1525
g3
g4
(g8
S'h=fV\xe4\x7f\x0e@'
p1526
tp1527
Rp1528
ssS'N'
p1529
(dp1530
g131
I7
sg132
F0.523
sg133
F0.539
ssS'Ag2Ir2'
p1531
(dp1532
g3
g4
(g8
S'\xd1\x11u\xc3q\x03\x10@'
p1533
tp1534
Rp1535
ssS'Cu1Nb3'
p1536
(dp1537
g3
g4
(g8
S'\xfe\xde\x1d\xbc\xc5>\x10@'
p1538
tp1539
Rp1540
ssS'Pd3Co1'
p1541
(dp1542
g3
g4
(g8
S'\x11\xfe\x93"\xf5\xcc\x0e@'
p1543
tp1544
Rp1545
ssS'Cu3In1'
p1546
(dp1547
g3
g4
(g8
S'm\xb1\xc7k\xd5\x00\x0f@'
p1548
tp1549
Rp1550
ssS'Au3Sn1'
p1551
(dp1552
g3
g4
(g8
S"\xbb\xd3'm40\x11@"
p1553
tp1554
Rp1555
ssS'Cu1Pd3'
p1556
(dp1557
g3
g4
(g8
S'\xdf\x8as\xad#\x14\x0f@'
p1558
tp1559
Rp1560
ssS'Au3Ag1'
p1561
(dp1562
g3
g4
(g8
S'P\x83\n\xc3#\xa9\x10@'
p1563
tp1564
Rp1565
ssS'Cl'
p1566
(dp1567
g131
I17
sg132
F0.762
sg133
F0.682
ssS'Ca'
p1568
(dp1569
g146
F1.74
sg139
F1.0
sg279
I2
sg148
F1.14
sg137
F1.8
sg133
F1.839
sg131
I20
ssS'Pt2Ni2'
p1570
(dp1571
g3
g4
(g8
S'\x19\x99\xbd<GT\x0e@'
p1572
tp1573
Rp1574
ssS'Ru3Ni1'
p1575
(dp1576
g3
g4
(g8
S'+\xed1~BD\x0e@'
p1577
tp1578
Rp1579
ssS'Tl'
p1580
(dp1581
g138
F0.584
sg145
F6.11
sg132
F1.659
sg149
F1.9
sg137
F1.9
sg150
I13
sg146
F1.48
sg139
F1.62
sg148
F1.03
sg131
I81
sg133
F1.297
ssS'Cu3Nb1'
p1582
(dp1583
g3
g4
(g8
S'\xd7\xa9A$\xeb\xb8\x0e@'
p1584
tp1585
Rp1586
ssS'Cd'
p1587
(dp1588
g138
F0.517
sg146
F1.48
sg279
I1
sg148
F0.92
sg137
F1.55
sg133
F1.368
sg131
I48
ssS'Ir3Pt1'
p1589
(dp1590
g3
g4
(g8
S"\xecF\xd0'>D\x0f@"
p1591
tp1592
Rp1593
ssS'Rh3Sn1'
p1594
(dp1595
g3
g4
(g8
S'\xcc\x08\xb8\x85\x93\xc6\x0f@'
p1596
tp1597
Rp1598
ssS'Cu1Cr3'
p1599
(dp1600
g3
g4
(g8
S'K\x81MdH\xc4\x0c@'
p1601
tp1602
Rp1603
ssS'Cs'
p1604
(dp1605
g146
F2.25
sg139
F0.79
sg279
I1
sg148
F1.81
sg137
F2.6
sg133
F2.824
sg131
I55
ssS'Cr'
p1606
(dp1607
g136
F0.16
sg3
g4
(g8
S'7\xe1\x1d\xb9\xb1\xec\x0c@'
p1608
tp1609
Rp1610
sg138
F0.455
sg144
F0.67
sg145
F6.77
sg151
g4
(g8
S'\x84\x04\x05ou\x7f\xa2\xc0'
p1611
tp1612
Rp1613
sg149
F1.42
sg137
F1.4
sg150
I6
sg156
F0.9
sg146
F1.27
sg139
F1.66
sg143
F3.6201
sg155
F5.27
sg148
F0.76
sg131
I24
sg133
F1.626
ssS'Cu'
p1614
(dp1615
g136
F-2.67
sg137
F1.35
sg138
F0.325
sg139
F1.9
sg3
g4
(g8
S'\x87\xa9>\x07\xf70\r@'
p1616
tp1617
Rp1618
sg143
F3.6686
sg133
F1.374
sg144
F1.24
sg145
F7.73
sg146
F1.38
sg147
F1.0
sg148
F0.71
sg149
F1.41
sg131
I29
sg150
I11
sg151
g4
(g8
S'\xa5E\x9cH\x0c\xf5\x98\xc0'
p1619
tp1620
Rp1621
sg155
F5.3
sg156
F0.67
sg157
F2.68
ssS'Cu3Rh1'
p1622
(dp1623
g3
g4
(g8
S'\x04\xddc\xa5\xde\xae\r@'
p1624
tp1625
Rp1626
ssS'Ag2Re2'
p1627
(dp1628
g3
g4
(g8
S"\x97\xae\x87'\xcb\xca\x0f@"
p1629
tp1630
Rp1631
ssS'Au3Y1'
p1632
(dp1633
g3
g4
(g8
S' kl\xd4(s\x11@'
p1634
tp1635
Rp1636
ssS'Au3Au1'
p1637
(dp1638
g3
g4
(g8
S'F\x89\xa4!\xdc\xb5\x10@'
p1639
tp1640
Rp1641
ssS'Ru3Au1'
p1642
(dp1643
g3
g4
(g8
S'\x03\xfdR\x04\tS\x0f@'
p1644
tp1645
Rp1646
ssS'Pd2Ru2'
p1647
(dp1648
g3
g4
(g8
S'\xedq\x90M\x0e\x1c\x0f@'
p1649
tp1650
Rp1651
ssS'Pd2Mn2'
p1652
(dp1653
g3
g4
(g8
S'\xc8\x9f\xcd\x88\x08$\x0e@'
p1654
tp1655
Rp1656
ssS'Ru3Nb1'
p1657
(dp1658
g3
g4
(g8
S'\xc2\xb6r\x9aPG\x0f@'
p1659
tp1660
Rp1661
ssS'Cu1Y3'
p1662
(dp1663
g3
g4
(g8
S'.\xe9\x85\xad\x89\xe1\x12@'
p1664
tp1665
Rp1666
ssS'Cu3Tl1'
p1667
(dp1668
g3
g4
(g8
S'*_~EXi\x0f@'
p1669
tp1670
Rp1671
ssS'Au3Ga1'
p1672
(dp1673
g3
g4
(g8
S'\xee\x12\x9c\xbe\xd1\x97\x10@'
p1674
tp1675
Rp1676
ssS'Ag3Zr1'
p1677
(dp1678
g3
g4
(g8
S'\x99\x8a\xe3\xa0Q\x18\x11@'
p1679
tp1680
Rp1681
ssS'Pd3Os1'
p1682
(dp1683
g3
g4
(g8
S'\x8a\x0b\xcbc\xacA\x0f@'
p1684
tp1685
Rp1686
ssS'Ru3Ag1'
p1687
(dp1688
g3
g4
(g8
S'\xf6\x83m4\xc2W\x0f@'
p1689
tp1690
Rp1691
ssS'Pt3Re1'
p1692
(dp1693
g3
g4
(g8
S'\xdc\x97}\x93\x01\x9f\x0f@'
p1694
tp1695
Rp1696
ssS'Au3Pd1'
p1697
(dp1698
g3
g4
(g8
S"l3'(cu\x10@"
p1699
tp1700
Rp1701
ssS'Au3Cr1'
p1702
(dp1703
g3
g4
(g8
S'L\x1b~\x9a\xa2\x86\x10@'
p1704
tp1705
Rp1706
ssS'Pd3Zn1'
p1707
(dp1708
g3
g4
(g8
S'5-c\xe8\x14V\x0f@'
p1709
tp1710
Rp1711
ssS'Y'
p1712
(dp1713
g136
F1.95
sg137
F1.85
sg3
g4
(g8
S'\xf8\xb7\xb4\x7f\x8d=\x14@'
p1714
tp1715
Rp1716
sg139
F1.22
sg143
F5.0553
sg133
F1.891
sg279
I3
sg144
F0.31
sg145
F6.22
sg146
F1.62
sg138
F0.939
sg148
F1.04
sg149
F1.99
sg131
I39
sg150
I3
sg151
g4
(g8
S'.\x11Z\x95\xc9\x99\x92\xc0'
p1717
tp1718
Rp1719
sg155
F3.42
sg156
F1.58
ssS'Ag3W1'
p1720
(dp1721
g3
g4
(g8
S'\xb1\x8d\xef\xc9d\x8f\x10@'
p1722
tp1723
Rp1724
ssS'Ir'
p1725
(dp1726
g136
F-2.11
sg137
F1.35
sg138
F0.678
sg139
F2.2
sg3
g4
(g8
S'\x06@\xf2%\xa7\x0f\x0f@'
p1727
tp1728
Rp1729
sg143
F3.8577
sg133
F1.515
sg144
F1.57
sg145
F9.1
sg146
F1.37
sg147
F4.45
sg148
F0.77
sg149
F1.5
sg131
I77
sg150
I9
sg151
g4
(g8
S'\x06\xc5\x8b\x03l`\x8a\xc0'
p1730
tp1731
Rp1732
sg155
F6.63
sg156
F1.08
sg157
F3.72
ssS'Cu1Os3'
p1733
(dp1734
g3
g4
(g8
S'\xb3/\x1c}\x1ao\x0e@'
p1735
tp1736
Rp1737
ssS'Ag3Re1'
p1738
(dp1739
g3
g4
(g8
S'\xc9\xce97\x86P\x10@'
p1740
tp1741
Rp1742
ssS'Pd3La1'
p1743
(dp1744
g3
g4
(g8
S'\xe2\xdc=wO\xe8\x10@'
p1745
tp1746
Rp1747
ssS'Cu3W1'
p1748
(dp1749
g3
g4
(g8
S'\xd5\xb1\x02-?$\x0e@'
p1750
tp1751
Rp1752
ssS'Pt3V1'
p1753
(dp1754
g3
g4
(g8
S'\xd4g\xe7.\xd5v\x0f@'
p1755
tp1756
Rp1757
ssS'In'
p1758
(dp1759
g138
F0.491
sg145
F5.79
sg132
F1.584
sg149
F1.55
sg137
F1.55
sg150
I13
sg146
F1.44
sg139
F1.78
sg279
I2
sg148
F0.94
sg131
I49
sg133
F1.234
ssS'Ag2Y2'
p1760
(dp1761
g3
g4
(g8
S'\x05\xe5\xd2\xca\x8cF\x12@'
p1762
tp1763
Rp1764
ssS'Ag1Os3'
p1765
(dp1766
g3
g4
(g8
S'\x07W\x1cs\x066\x0f@'
p1767
tp1768
Rp1769
ssS'Pd2La2'
p1770
(dp1771
g3
g4
(g8
S"'/Q@\xe7I\x12@"
p1772
tp1773
Rp1774
ssS'Cu1Sc3'
p1775
(dp1776
g3
g4
(g8
S'\xb5\xee\x19\x97\xfai\x11@'
p1777
tp1778
Rp1779
ssS'Cu3Cu1'
p1780
(dp1781
g3
g4
(g8
S'\x92\x15?z\xb43\r@'
p1782
tp1783
Rp1784
ssS'Rh3Tl1'
p1785
(dp1786
g3
g4
(g8
S'\xbfb\xe8\xfe>\xfe\x0f@'
p1787
tp1788
Rp1789
ssS'Rh3Ni1'
p1790
(dp1791
g3
g4
(g8
S'\x001\xc6A\xaaR\x0e@'
p1792
tp1793
Rp1794
ssS'Ag2Au2'
p1795
(dp1796
g3
g4
(g8
S'2\xc9\xbb\x12\xd1\xa3\x10@'
p1797
tp1798
Rp1799
ssS'Pd3W1'
p1800
(dp1801
g3
g4
(g8
S'\xcc\xaa18\xbd\x9e\x0f@'
p1802
tp1803
Rp1804
ssS'Be'
p1805
(dp1806
g146
F0.9
sg139
F1.57
sg279
I2
sg148
F0.41
sg137
F1.05
sg133
F1.085
sg131
I4
ssS'Pt3Zr1'
p1807
(dp1808
g3
g4
(g8
S'\x82\xfb3o\x8e8\x10@'
p1809
tp1810
Rp1811
ssS'Ba'
p1812
(dp1813
g146
F1.98
sg139
F0.89
sg279
I2
sg148
F1.49
sg137
F2.15
sg133
F2.354
sg131
I56
ssS'Bi'
p1814
(dp1815
g149
F1.6
sg137
F1.6
sg131
I83
sg139
F2.02
sg133
F1.144
sg138
F0.542
sg132
F1.361
sg146
F1.46
sg148
F1.17
ssS'Ru3Sn1'
p1816
(dp1817
g3
g4
(g8
S'\x05\x93\xe0\xffY\xb3\x0f@'
p1818
tp1819
Rp1820
ssS'Ir3Mn1'
p1821
(dp1822
g3
g4
(g8
S'\x8aoX(`j\x0e@'
p1823
tp1824
Rp1825
ssS'Ag1Co3'
p1826
(dp1827
g3
g4
(g8
S'\xad\x00\xee\xce\xd7\xad\r@'
p1828
tp1829
Rp1830
ssS'Ni3Y1'
p1831
(dp1832
g3
g4
(g8
S'\xa0r\xcb2\x06\xed\x0e@'
p1833
tp1834
Rp1835
ssS'Cu1Ag3'
p1836
(dp1837
g3
g4
(g8
S'\xdcA\xbc\x94\x1f1\x10@'
p1838
tp1839
Rp1840
ssS'Cu1Pt3'
p1841
(dp1842
g3
g4
(g8
S'Uu\x8f\x86{Q\x0f@'
p1843
tp1844
Rp1845
ssS'Ag3Ta1'
p1846
(dp1847
g3
g4
(g8
S'=\x81\x93\xf7.\xba\x10@'
p1848
tp1849
Rp1850
ssS'Ir3Sn1'
p1851
(dp1852
g3
g4
(g8
S' V#\xf3\xa9\xf8\x0f@'
p1853
tp1854
Rp1855
ssS'Os'
p1856
(dp1857
g136
F-1.5
sg3
g4
(g8
S'l\x15J\xdc\xda\xb7\x0e@'
p1858
tp1859
Rp1860
sg138
F0.706
sg144
F1.1
sg145
F8.7
sg151
g4
(g8
S'\x1a\xc8-\xb7`h\x8c\xc0'
p1861
tp1862
Rp1863
sg149
F1.49
sg137
F1.3
sg150
I8
sg156
F1.13
sg146
F1.28
sg139
F2.2
sg143
F3.8419
sg155
F6.25
sg148
F0.77
sg131
I76
sg133
F1.555
ssS'Pt2Y2'
p1864
(dp1865
g3
g4
(g8
S'\xc0?\x9e\x8a\xf5r\x11@'
p1866
tp1867
Rp1868
ssS'Ru3La1'
p1869
(dp1870
g3
g4
(g8
S'\xd3\x08HY\xd8\x82\x10@'
p1871
tp1872
Rp1873
ssS'Cu3Cr1'
p1874
(dp1875
g3
g4
(g8
S'\x82I#S\xec\xec\r@'
p1876
tp1877
Rp1878
ssS'Ni3Cr1'
p1879
(dp1880
g3
g4
(g8
S'U\xe7\xe8\x19}y\x0c@'
p1881
tp1882
Rp1883
ssS'Cu3Au1'
p1884
(dp1885
g3
g4
(g8
S'\xf6\xcf\x8f\xecOf\x0e@'
p1886
tp1887
Rp1888
ssS'Pt2Ta2'
p1889
(dp1890
g3
g4
(g8
S'\x80\x87\x16O\x06(\x10@'
p1891
tp1892
Rp1893
ssS'Pd3Sc1'
p1894
(dp1895
g3
g4
(g8
S']<k\x9dF\n\x10@'
p1896
tp1897
Rp1898
ssS'Cu3Os1'
p1899
(dp1900
g3
g4
(g8
S"\xf1\xa8\x1a}'\x9b\r@"
p1901
tp1902
Rp1903
ssS'Ru3Re1'
p1904
(dp1905
g3
g4
(g8
S'\xce\x90<\x92Z\xcb\x0e@'
p1906
tp1907
Rp1908
ssS'Pd2Sc2'
p1909
(dp1910
g3
g4
(g8
S'4R[\x15\xb4\x9f\x10@'
p1911
tp1912
Rp1913
ssS'Ag1Re3'
p1914
(dp1915
g3
g4
(g8
S"\x13\xe1'\x14\x8fV\x0f@"
p1916
tp1917
Rp1918
ssS'Rh3Rh1'
p1919
(dp1920
g3
g4
(g8
S'6*\xaa\xedem\x18@'
p1921
tp1922
Rp1923
ssS'Ag1Mn3'
p1924
(dp1925
g3
g4
(g8
S'\xca\xca\xadB\x97G\r@'
p1926
tp1927
Rp1928
ssS'Ir3In1'
p1929
(dp1930
g3
g4
(g8
S'M,s\xe7\x0c\xf1\x0f@'
p1931
tp1932
Rp1933
ssS'Ni3Ir1'
p1934
(dp1935
g3
g4
(g8
S'\xfc4K\xf2\xf6\xf9\x0c@'
p1936
tp1937
Rp1938
ssS'Ni3Pd1'
p1939
(dp1940
g3
g4
(g8
S'\xf4\xeb\x8e?\xb35\r@'
p1941
tp1942
Rp1943
ssS'Ni2La2'
p1944
(dp1945
g3
g4
(g8
S'\xee\xc2;_\x90\xaa\x11@'
p1946
tp1947
Rp1948
ssS'Pt3Ta1'
p1949
(dp1950
g3
g4
(g8
S'?\xc9\xc4\x95F\x06\x10@'
p1951
tp1952
Rp1953
ssS'Hf'
p1954
(dp1955
g138
F0.876
sg146
F1.5
sg148
F0.85
sg137
F1.55
sg133
F1.779
sg131
I72
ssS'Au3Mo1'
p1956
(dp1957
g3
g4
(g8
S'\xc8^\x01J\xeb\xba\x10@'
p1958
tp1959
Rp1960
ssS'Ir3Co1'
p1961
(dp1962
g3
g4
(g8
S'\xebo\xa4\x9d%g\x0e@'
p1963
tp1964
Rp1965
ssS'O'
p1966
(dp1967
g131
I8
sg139
F3.44
sg133
F0.463
sg132
F0.441
ssS'Pt3Mn1'
p1968
(dp1969
g3
g4
(g8
S'\x03t[\x97m\x92\x0f@'
p1970
tp1971
Rp1972
ssS'Ag3Au1'
p1973
(dp1974
g3
g4
(g8
S'\x13\\}\xc8@\xa0\x10@'
p1975
tp1976
Rp1977
ssS'Ag2Ag2'
p1978
(dp1979
g3
g4
(g8
S'f\x9e\x08.\xac\xa2\x10@'
p1980
tp1981
Rp1982
ssS'Ag1Ag3'
p1983
(dp1984
g3
g4
(g8
S'f\x9e\x08.\xac\xa2\x10@'
p1985
tp1986
Rp1987
ssS'Ag2Zr2'
p1988
(dp1989
g3
g4
(g8
S'\x03\xf6x\x1c\xc89\x11@'
p1990
tp1991
Rp1992
ssS'Pt2Re2'
p1993
(dp1994
g3
g4
(g8
S'`\x95\x14F\x95X\x0f@'
p1995
tp1996
Rp1997
ssS'Ru3In1'
p1998
(dp1999
g3
g4
(g8
S'\xf3\x14\xcb\x1c\x85\xac\x0f@'
p2000
tp2001
Rp2002
ssS'Ir3Zr1'
p2003
(dp2004
g3
g4
(g8
S'\xa8:\xa9O\xce\xdc\x0f@'
p2005
tp2006
Rp2007
ssS'Ir3Tl1'
p2008
(dp2009
g3
g4
(g8
S'S[\xa9\xfe\x10\x19\x10@'
p2010
tp2011
Rp2012
ssS'Pd3Ni1'
p2013
(dp2014
g3
g4
(g8
S'eQ\xec\xa4\x1f\xea\x0e@'
p2015
tp2016
Rp2017
ssS'Pt3Ir1'
p2018
(dp2019
g3
g4
(g8
S'7\xf1\xc9[\xd3\xaf\x0f@'
p2020
tp2021
Rp2022
ssS'Ni'
p2023
(dp2024
g136
F-1.29
sg137
F1.35
sg138
F0.338
sg139
F1.91
sg3
g4
(g8
S'\x1c\xae\xe7\xb3k5\x0c@'
p2025
tp2026
Rp2027
sg143
F3.5245
sg133
F1.276
sg144
F1.16
sg145
F7.64
sg146
F1.21
sg147
F1.16
sg148
F0.7
sg149
F1.38
sg131
I28
sg150
I10
sg151
g4
(g8
S'SN[/{a\x95\xc0'
p2028
tp2029
Rp2030
sg155
F5.77
sg156
F0.71
sg157
F2.46
ssS'Na'
p2031
(dp2032
g146
F1.54
sg139
F0.93
sg279
I1
sg148
F1.16
sg137
F1.8
sg133
F1.794
sg131
I11
ssS'Nb'
p2033
(dp2034
g136
F1.41
sg3
g4
(g8
S'\x0e(\xe2\xbc\xd5\xdd\x10@'
p2035
tp2036
Rp2037
sg138
F0.789
sg144
F0.9
sg145
F6.76
sg151
g4
(g8
S'\xc5\x97H\xd2\xf4\x10\x99\xc0'
p2038
tp2039
Rp2040
sg149
F1.62
sg137
F1.45
sg150
I5
sg156
F1.28
sg146
F1.37
sg139
F1.6
sg143
F4.2174
sg155
F4.69
sg148
F0.78
sg131
I41
sg133
F1.819
ssS'Cu1Zr3'
p2041
(dp2042
g3
g4
(g8
S'\x7f\xa3 \x92\xfeB\x11@'
p2043
tp2044
Rp2045
ssS'Pt3Rh1'
p2046
(dp2047
g3
g4
(g8
S'\x04\xd2\xd9\x7f~\xa0\x0f@'
p2048
tp2049
Rp2050
ssS'Au3La1'
p2051
(dp2052
g3
g4
(g8
S'\xc1x\xaa\xda\xe9\x0c\x12@'
p2053
tp2054
Rp2055
ssS'Cu3Ag1'
p2056
(dp2057
g3
g4
(g8
S'\x92"*\xee\xd8[\x0e@'
p2058
tp2059
Rp2060
ssS'Ir3Sc1'
p2061
(dp2062
g3
g4
(g8
S'\xc6\x18$\x00d\x99\x0f@'
p2063
tp2064
Rp2065
ssS'Cu1Au3'
p2066
(dp2067
g3
g4
(g8
S'A\x8d~/tB\x10@'
p2068
tp2069
Rp2070
ssS'Ag3Mo1'
p2071
(dp2072
g3
g4
(g8
S'\xdc\x94Y\x93\x9d\xc9\x10@'
p2073
tp2074
Rp2075
ssS'Ni3Bi1'
p2076
(dp2077
g3
g4
(g8
S'"\xe8\xce\x0b|\xaa\x0e@'
p2078
tp2079
Rp2080
ssS'Pd3Ti1'
p2081
(dp2082
g3
g4
(g8
S'\x1a\xb8\xe6\x04\xafk\x0f@'
p2083
tp2084
Rp2085
ssS'Rh3Ta1'
p2086
(dp2087
g3
g4
(g8
S'J\xf6\\\x04\xc4/\x0f@'
p2088
tp2089
Rp2090
ssS'Pt3Au1'
p2091
(dp2092
g3
g4
(g8
S'O2)\xfd\x1a\x1f\x10@'
p2093
tp2094
Rp2095
ssS'Ag3Rh1'
p2096
(dp2097
g3
g4
(g8
S'\xc1um\x87vN\x10@'
p2098
tp2099
Rp2100
ssS'Ni3Ga1'
p2101
(dp2102
g3
g4
(g8
S'\xdcq~\x04\x82\xb4\x0c@'
p2103
tp2104
Rp2105
ssS'Cu3Mo1'
p2106
(dp2107
g3
g4
(g8
S'\x9c<\x1cAlA\x0e@'
p2108
tp2109
Rp2110
ssS'Au3Co1'
p2111
(dp2112
g3
g4
(g8
S'=(fJ\x89A\x10@'
p2113
tp2114
Rp2115
ssS'Pd2Ti2'
p2116
(dp2117
g3
g4
(g8
S'\xe6\xe9\x92C\x02\xb9\x0f@'
p2118
tp2119
Rp2120
ssS'Cu3Ge1'
p2121
(dp2122
g3
g4
(g8
S'F\xd3I\x0b\x17\xe6\r@'
p2123
tp2124
Rp2125
ssS'Ru3Y1'
p2126
(dp2127
g3
g4
(g8
S'\x89\x88\xe0\xe6\xa74\x10@'
p2128
tp2129
Rp2130
ssS'Rh3Mn1'
p2131
(dp2132
g3
g4
(g8
S"\xd1}\x03'\xc1E\x0e@"
p2133
tp2134
Rp2135
ssS'Rh3Os1'
p2136
(dp2137
g3
g4
(g8
S'\xe2\xe9>T\xd1\xb6\x0e@'
p2138
tp2139
Rp2140
ssS'Ni3In1'
p2141
(dp2142
g3
g4
(g8
S'^\x01\xa0w;\xfb\r@'
p2143
tp2144
Rp2145
ssS'Ru3Tl1'
p2146
(dp2147
g3
g4
(g8
S'\xf0(\xd6\x99b\xdf\x0f@'
p2148
tp2149
Rp2150
ssS'Pd3Cu1'
p2151
(dp2152
g3
g4
(g8
S'\xdcy\xcb\x89*\x14\x0f@'
p2153
tp2154
Rp2155
ssS'Ir3Ir1'
p2156
(dp2157
g3
g4
(g8
S'\xa9\x9c3\xd0s\xa6\x18@'
p2158
tp2159
Rp2160
ssS'Pt2Au2'
p2161
(dp2162
g3
g4
(g8
S'\x8e\x87[V\x10M\x10@'
p2163
tp2164
Rp2165
ssS'Ni3Zr1'
p2166
(dp2167
g3
g4
(g8
S'\x0f\x08!$v\t\x0e@'
p2168
tp2169
Rp2170
ssS'Pd2W2'
p2171
(dp2172
g3
g4
(g8
S'\xb0\xfc\xe4 \xf3\xa4\x0f@'
p2173
tp2174
Rp2175
ssS'Ni3Sc1'
p2176
(dp2177
g3
g4
(g8
S'\xadD\r0\x8a\xb7\r@'
p2178
tp2179
Rp2180
ssS'Pt3Ag1'
p2181
(dp2182
g3
g4
(g8
S'7\xd5\xe3nz\x0f\x10@'
p2183
tp2184
Rp2185
ssS'Al'
p2186
(dp2187
g146
F1.18
sg279
I1
sg148
F0.53
sg132
F1.422
sg137
F1.25
sg133
F1.11
sg131
I13
ssS'Ag1Au3'
p2188
(dp2189
g3
g4
(g8
S'P\x83\n\xc3#\xa9\x10@'
p2190
tp2191
Rp2192
ssS'Ag3Tl1'
p2193
(dp2194
g3
g4
(g8
S'A\xc7\xdf\x98o5\x11@'
p2195
tp2196
Rp2197
ssS'Ir3Ga1'
p2198
(dp2199
g3
g4
(g8
S'\xb6\xa7{\x06\xfb\x18\x0f@'
p2200
tp2201
Rp2202
ssS'Pd3Nb1'
p2203
(dp2204
g3
g4
(g8
S'\xd5\xb5\x84\x14\x9d\xd4\x0f@'
p2205
tp2206
Rp2207
ssS'Ti'
p2208
(dp2209
g136
F1.5
sg137
F1.4
sg3
g4
(g8
S'\xa0\xb6"m\xfbq\x10@'
p2210
tp2211
Rp2212
sg139
F1.54
sg143
F4.1058
sg133
F1.622
sg279
I4
sg144
F0.08
sg145
F6.83
sg146
F1.36
sg138
F0.528
sg148
F0.75
sg149
F1.61
sg131
I22
sg150
I4
sg151
g4
(g8
S"\xd0\xde;H'\xcc\x98\xc0"
p2213
tp2214
Rp2215
sg155
F4.63
sg156
F1.08
ssS'Pt3Sn1'
p2216
(dp2217
g3
g4
(g8
S'r\x1d\xd26^L\x10@'
p2218
tp2219
Rp2220
ssS'Ag2Sc2'
p2221
(dp2222
g3
g4
(g8
S'\xc4zq<aH\x11@'
p2223
tp2224
Rp2225
ssS'Rh3Pb1'
p2226
(dp2227
g3
g4
(g8
S'\x80\xcc\x98Y\x97$\x10@'
p2228
tp2229
Rp2230
ssS'Ta'
p2231
(dp2232
g136
F2.0
sg3
g4
(g8
S'8]\xbc\x98\xf5\xd7\x10@'
p2233
tp2234
Rp2235
sg138
F0.82
sg144
F0.32
sg145
F7.89
sg151
g4
(g8
S'\x01\x9f=&}H\xa0\xc0'
p2236
tp2237
Rp2238
sg149
F1.62
sg137
F1.45
sg150
I5
sg156
F1.34
sg146
F1.38
sg139
F1.5
sg143
F4.2177
sg155
F4.86
sg148
F0.78
sg131
I73
sg133
F1.709
ssS'Ni3Cu1'
p2239
(dp2240
g3
g4
(g8
S'\x87S.Z\x08h\x0c@'
p2241
tp2242
Rp2243
ssS'Ni3Ti1'
p2244
(dp2245
g3
g4
(g8
S'&\xed\xa19!\xe5\x0c@'
p2246
tp2247
Rp2248
ssS'Ru3Rh1'
p2249
(dp2250
g3
g4
(g8
S'\x10XU\x8a{\xc8\x0e@'
p2251
tp2252
Rp2253
ssS'Pt2Co2'
p2254
(dp2255
g3
g4
(g8
S'\xe6\xf2,g\xa3e\x0e@'
p2256
tp2257
Rp2258
ssS'Rh3Re1'
p2259
(dp2260
g3
g4
(g8
S'/@\x1fi\xc9\xc2\x0e@'
p2261
tp2262
Rp2263
ssS'Ag3Ag1'
p2264
(dp2265
g3
g4
(g8
S'f\x9e\x08.\xac\xa2\x10@'
p2266
tp2267
Rp2268
ssS'Cu3Co1'
p2269
(dp2270
g3
g4
(g8
S'\xad\x1b\xb0\r\x86\xfc\x0c@'
p2271
tp2272
Rp2273
ssS'Ni3Ru1'
p2274
(dp2275
g3
g4
(g8
S'\xa5\xce)\xaa\xf8\xf6\x0c@'
p2276
tp2277
Rp2278
ssS'Cu3Pd1'
p2279
(dp2280
g3
g4
(g8
S'\x8c\xc4\xee\x85\x98\xe1\r@'
p2281
tp2282
Rp2283
ssS'Ag1Rh3'
p2284
(dp2285
g3
g4
(g8
S'a<\xc5\xae$a\x0f@'
p2286
tp2287
Rp2288
ssS'Pt2Zr2'
p2289
(dp2290
g3
g4
(g8
S'\x19\x91e\x12\xe5\xb2\x10@'
p2291
tp2292
Rp2293
ssS'Ru3Mn1'
p2294
(dp2295
g3
g4
(g8
S'\xc4\x12`P\xe7\x83\x0e@'
p2296
tp2297
Rp2298
ssS'Ag1Pt3'
p2299
(dp2300
g3
g4
(g8
S'\xc6x\xad\x9ew\x0f\x10@'
p2301
tp2302
Rp2303
ssS'Ir3Nb1'
p2304
(dp2305
g3
g4
(g8
S'h\x96\x84\xdc\rl\x0f@'
p2306
tp2307
Rp2308
ssS'Rh3In1'
p2309
(dp2310
g3
g4
(g8
S'X\x115\xb6\xec\xc1\x0f@'
p2311
tp2312
Rp2313
ssS'Pt3In1'
p2314
(dp2315
g3
g4
(g8
S'Q\xd8\xf3\xf5\xfd=\x10@'
p2316
tp2317
Rp2318
ssS'Ag'
p2319
(dp2320
g136
F-4.3
sg137
F1.6
sg138
F0.547
sg139
F1.93
sg3
g4
(g8
S'f\x9e\x08.\xac\xa2\x10@'
p2321
tp2322
Rp2323
sg143
F4.1381
sg133
F1.532
sg144
F1.3
sg145
F7.58
sg146
F1.53
sg147
F2.26
sg148
F1.29
sg149
F1.59
sg131
I47
sg150
I11
sg151
g4
(g8
S'Z\xe3\xe4\x12\x82.\x94\xc0'
p2324
tp2325
Rp2326
sg155
F5.01
sg156
F0.89
sg157
F3.34
ssS'Cu3Zr1'
p2327
(dp2328
g3
g4
(g8
S'Xj\x9b\xb7K\x91\x0f@'
p2329
tp2330
Rp2331
ssS'Ag3Sc1'
p2332
(dp2333
g3
g4
(g8
S'{hu\xfc\xd1\xfc\x10@'
p2334
tp2335
Rp2336
ssS'Pd3Ir1'
p2337
(dp2338
g3
g4
(g8
S'\xe7\xa0\xfd\xb0\xcab\x0f@'
p2339
tp2340
Rp2341
ssS'Ag1Cu3'
p2342
(dp2343
g3
g4
(g8
S'c=_\xec\xe6[\x0e@'
p2344
tp2345
Rp2346
ssS'Pt3Tl1'
p2347
(dp2348
g3
g4
(g8
S'34Ejyg\x10@'
p2349
tp2350
Rp2351
ssS'Au'
p2352
(dp2353
g136
F-3.56
sg137
F1.35
sg138
F0.635
sg139
F2.54
sg3
g4
(g8
S'F\x89\xa4!\xdc\xb5\x10@'
p2354
tp2355
Rp2356
sg143
F4.1802
sg133
F1.56
sg144
F2.31
sg145
F9.23
sg146
F1.44
sg147
F3.35
sg148
F1.51
sg149
F1.59
sg131
I79
sg150
I11
sg151
g4
(g8
S"\xa5/\xaa\xbb\xbf'\x92\xc0"
p2357
tp2358
Rp2359
sg155
F6.01
sg156
F1.01
sg157
F3.88
ssS'Ir3Rh1'
p2360
(dp2361
g3
g4
(g8
S'\x8c\xc3\x10\xc8\xed\xf9\x0e@'
p2362
tp2363
Rp2364
ss.